; ModuleID = '6/3287.c'
source_filename = "6/3287.c"
target datalayout = "e-m:e-p270:32:32-p271:32:32-p272:64:64-i64:64-f80:128-n8:16:32:64-S128"
target triple = "x86_64-pc-linux-gnu"

@.str = private unnamed_addr constant [3 x i8] c"%d\00", align 1
@.str.1 = private unnamed_addr constant [5 x i8] c"%d%d\00", align 1
@.str.2 = private unnamed_addr constant [4 x i8] c"%d\0A\00", align 1

; Function Attrs: noinline nounwind uwtable
define dso_local i32 @main() #0 {
  %1 = alloca i32, align 4
  %2 = alloca [100 x [100 x i32]], align 16
  %3 = alloca i32, align 4
  %4 = alloca i32, align 4
  %5 = alloca i32, align 4
  %6 = alloca i32, align 4
  %7 = alloca i32, align 4
  %8 = alloca i32, align 4
  %9 = alloca i32, align 4
  store i32 0, i32* %1, align 4
  %10 = call i32 (i8*, ...) @__isoc99_scanf(i8* getelementptr inbounds ([3 x i8], [3 x i8]* @.str, i64 0, i64 0), i32* %4)
  store i32 0, i32* %3, align 4
  br label %11

11:                                               ; preds = %114, %0
  %12 = load i32, i32* %3, align 4
  %13 = load i32, i32* %4, align 4
  %14 = icmp slt i32 %12, %13
  br i1 %14, label %15, label %117

15:                                               ; preds = %11
  %16 = call i32 (i8*, ...) @__isoc99_scanf(i8* getelementptr inbounds ([5 x i8], [5 x i8]* @.str.1, i64 0, i64 0), i32* %5, i32* %6)
  store i32 0, i32* %7, align 4
  br label %17

17:                                               ; preds = %38, %15
  %18 = load i32, i32* %7, align 4
  %19 = load i32, i32* %5, align 4
  %20 = icmp slt i32 %18, %19
  br i1 %20, label %21, label %41

21:                                               ; preds = %17
  store i32 0, i32* %8, align 4
  br label %22

22:                                               ; preds = %34, %21
  %23 = load i32, i32* %8, align 4
  %24 = load i32, i32* %6, align 4
  %25 = icmp slt i32 %23, %24
  br i1 %25, label %26, label %37

26:                                               ; preds = %22
  %27 = load i32, i32* %7, align 4
  %28 = sext i32 %27 to i64
  %29 = getelementptr inbounds [100 x [100 x i32]], [100 x [100 x i32]]* %2, i64 0, i64 %28
  %30 = load i32, i32* %8, align 4
  %31 = sext i32 %30 to i64
  %32 = getelementptr inbounds [100 x i32], [100 x i32]* %29, i64 0, i64 %31
  %33 = call i32 (i8*, ...) @__isoc99_scanf(i8* getelementptr inbounds ([3 x i8], [3 x i8]* @.str, i64 0, i64 0), i32* %32)
  br label %34

34:                                               ; preds = %26
  %35 = load i32, i32* %8, align 4
  %36 = add nsw i32 %35, 1
  store i32 %36, i32* %8, align 4
  br label %22

37:                                               ; preds = %22
  br label %38

38:                                               ; preds = %37
  %39 = load i32, i32* %7, align 4
  %40 = add nsw i32 %39, 1
  store i32 %40, i32* %7, align 4
  br label %17

41:                                               ; preds = %17
  store i32 0, i32* %9, align 4
  store i32 0, i32* %8, align 4
  br label %42

42:                                               ; preds = %55, %41
  %43 = load i32, i32* %8, align 4
  %44 = load i32, i32* %6, align 4
  %45 = sub nsw i32 %44, 1
  %46 = icmp slt i32 %43, %45
  br i1 %46, label %47, label %58

47:                                               ; preds = %42
  %48 = getelementptr inbounds [100 x [100 x i32]], [100 x [100 x i32]]* %2, i64 0, i64 0
  %49 = load i32, i32* %8, align 4
  %50 = sext i32 %49 to i64
  %51 = getelementptr inbounds [100 x i32], [100 x i32]* %48, i64 0, i64 %50
  %52 = load i32, i32* %51, align 4
  %53 = load i32, i32* %9, align 4
  %54 = add nsw i32 %53, %52
  store i32 %54, i32* %9, align 4
  br label %55

55:                                               ; preds = %47
  %56 = load i32, i32* %8, align 4
  %57 = add nsw i32 %56, 1
  store i32 %57, i32* %8, align 4
  br label %42

58:                                               ; preds = %42
  store i32 0, i32* %7, align 4
  br label %59

59:                                               ; preds = %74, %58
  %60 = load i32, i32* %7, align 4
  %61 = load i32, i32* %5, align 4
  %62 = sub nsw i32 %61, 1
  %63 = icmp slt i32 %60, %62
  br i1 %63, label %64, label %77

64:                                               ; preds = %59
  %65 = load i32, i32* %7, align 4
  %66 = sext i32 %65 to i64
  %67 = getelementptr inbounds [100 x [100 x i32]], [100 x [100 x i32]]* %2, i64 0, i64 %66
  %68 = load i32, i32* %8, align 4
  %69 = sext i32 %68 to i64
  %70 = getelementptr inbounds [100 x i32], [100 x i32]* %67, i64 0, i64 %69
  %71 = load i32, i32* %70, align 4
  %72 = load i32, i32* %9, align 4
  %73 = add nsw i32 %72, %71
  store i32 %73, i32* %9, align 4
  br label %74

74:                                               ; preds = %64
  %75 = load i32, i32* %7, align 4
  %76 = add nsw i32 %75, 1
  store i32 %76, i32* %7, align 4
  br label %59

77:                                               ; preds = %59
  br label %78

78:                                               ; preds = %91, %77
  %79 = load i32, i32* %8, align 4
  %80 = icmp sgt i32 %79, 0
  br i1 %80, label %81, label %94

81:                                               ; preds = %78
  %82 = load i32, i32* %7, align 4
  %83 = sext i32 %82 to i64
  %84 = getelementptr inbounds [100 x [100 x i32]], [100 x [100 x i32]]* %2, i64 0, i64 %83
  %85 = load i32, i32* %8, align 4
  %86 = sext i32 %85 to i64
  %87 = getelementptr inbounds [100 x i32], [100 x i32]* %84, i64 0, i64 %86
  %88 = load i32, i32* %87, align 4
  %89 = load i32, i32* %9, align 4
  %90 = add nsw i32 %89, %88
  store i32 %90, i32* %9, align 4
  br label %91

91:                                               ; preds = %81
  %92 = load i32, i32* %8, align 4
  %93 = add nsw i32 %92, -1
  store i32 %93, i32* %8, align 4
  br label %78

94:                                               ; preds = %78
  br label %95

95:                                               ; preds = %108, %94
  %96 = load i32, i32* %7, align 4
  %97 = icmp sgt i32 %96, 0
  br i1 %97, label %98, label %111

98:                                               ; preds = %95
  %99 = load i32, i32* %7, align 4
  %100 = sext i32 %99 to i64
  %101 = getelementptr inbounds [100 x [100 x i32]], [100 x [100 x i32]]* %2, i64 0, i64 %100
  %102 = load i32, i32* %8, align 4
  %103 = sext i32 %102 to i64
  %104 = getelementptr inbounds [100 x i32], [100 x i32]* %101, i64 0, i64 %103
  %105 = load i32, i32* %104, align 4
  %106 = load i32, i32* %9, align 4
  %107 = add nsw i32 %106, %105
  store i32 %107, i32* %9, align 4
  br label %108

108:                                              ; preds = %98
  %109 = load i32, i32* %7, align 4
  %110 = add nsw i32 %109, -1
  store i32 %110, i32* %7, align 4
  br label %95

111:                                              ; preds = %95
  %112 = load i32, i32* %9, align 4
  %113 = call i32 (i8*, ...) @printf(i8* getelementptr inbounds ([4 x i8], [4 x i8]* @.str.2, i64 0, i64 0), i32 %112)
  br label %114

114:                                              ; preds = %111
  %115 = load i32, i32* %3, align 4
  %116 = add nsw i32 %115, 1
  store i32 %116, i32* %3, align 4
  br label %11

117:                                              ; preds = %11
  ret i32 0
}

declare dso_local i32 @__isoc99_scanf(i8*, ...) #1

declare dso_local i32 @printf(i8*, ...) #1


!llvm.module.flags = !{!0}
!llvm.ident = !{!1}

!0 = !{i32 1, !"wchar_size", i32 4}
!1 = !{!"clang version 10.0.0-4ubuntu1 "}
